target datalayout = "e-m:e-p270:32:32-p271:32:32-p272:64:64-i64:64-i128:128-f80:128-n8:16:32:64-S128"
target triple = "x86_64-pc-linux-gnu"

%struct.CVodeMemRec = type { ptr, double, ptr, ptr, i32, i32, double, double, ptr, i32, i32, ptr, ptr, i32, i32, ptr, i32, i32, double, double, ptr, i32, i32, i32, i32, ptr, ptr, ptr, i32, i32, ptr, ptr, ptr, i32, double, i32, i32, double, ptr, ptr, ptr, i32, ptr, ptr, i32, i32, i32, double, ptr, ptr, ptr, [13 x ptr], ptr, ptr, ptr, ptr, ptr, ptr, ptr, ptr, ptr, [13 x ptr], ptr, ptr, ptr, ptr, [13 x ptr], ptr, ptr, ptr, ptr, ptr, i32, [13 x ptr], ptr, ptr, ptr, ptr, ptr, i32, i32, double, i32, i32, i32, i32, i32, double, double, double, double, double, double, double, double, [14 x double], [6 x double], [13 x double], double, double, double, double, double, double, double, double, i32, double, double, i32, double, double, ptr, i32, i64, i32, i32, i32, double, double, double, double, double, double, double, double, double, double, double, double, i64, i32, i64, i64, i64, i64, i64, i64, i64, i64, i64, ptr, i64, i64, ptr, i64, i64, ptr, i64, i64, i64, i64, i64, i64, i32, double, double, double, i64, i64, i64, i64, i64, i64, ptr, i32, ptr, i32, ptr, i32, ptr, i32, i32, i64, i32, ptr, i32, ptr, ptr, ptr, ptr, ptr, ptr, i32, i32, ptr, ptr, ptr, ptr, ptr, i64, double, i32, i32, i64, double, double, double, i32, i32, double, i32, i32, i32, i32, i32, i32, i32, i32, i32, i32, i32, i32, i32, i32, i32, i32, ptr, i64, i32, [6 x [4 x double]], i32, i64, ptr, i32, ptr, ptr, double, double, double, ptr, ptr, ptr, double, double, i32, i32, i64, ptr, i32, ptr, i32, i32, [13 x double], ptr, ptr, ptr, i32, ptr, i32 }
%struct.CVadjMemRec = type { double, double, i32, i32, double, i32, double, ptr, i32, ptr, i32, ptr, i32, ptr, i64, i64, ptr, i64, i32, ptr, ptr, ptr, ptr, i32, i32, i32, i32, [13 x ptr], [13 x ptr], [13 x double], ptr, ptr }
%struct.CVodeBMemRec = type { i32, double, ptr, i32, i32, ptr, ptr, ptr, ptr, ptr, ptr, ptr, ptr, ptr, double, ptr, ptr }
%struct.CVBBDPrecDataRecB = type { ptr, ptr }

@.str = private unnamed_addr constant [122 x i8] c"generated/home/dtcxzyw/WorkSpace/Projects/compilers/llvm-opt-benchmark/bench/sundials/sundials/src/cvodes/cvodes_bbdpre.c\00", align 1
@__func__.cvGlocWrapper = private unnamed_addr constant [14 x i8] c"cvGlocWrapper\00", align 1
@.str.11 = private unnamed_addr constant [25 x i8] c"Bad t for interpolation.\00", align 1

; Function Attrs: nounwind uwtable
define internal i32 @cvGlocWrapper(i64 noundef %0, double noundef %1, ptr noundef %2, ptr noundef %3, ptr noundef %4) #0 {
  %6 = alloca i32, align 4
  %7 = alloca i64, align 8
  %8 = alloca double, align 8
  %9 = alloca ptr, align 8
  %10 = alloca ptr, align 8
  %11 = alloca ptr, align 8
  %12 = alloca ptr, align 8
  %13 = alloca ptr, align 8
  %14 = alloca ptr, align 8
  %15 = alloca ptr, align 8
  %16 = alloca i32, align 4
  %17 = alloca i32, align 4
  store i64 %0, ptr %7, align 8, !tbaa !7
  store double %1, ptr %8, align 8, !tbaa !9
  store ptr %2, ptr %9, align 8, !tbaa !75
  store ptr %3, ptr %10, align 8, !tbaa !75
  store ptr %4, ptr %11, align 8, !tbaa !3
  call void @llvm.lifetime.start.p0(i64 8, ptr %12) #6
  call void @llvm.lifetime.start.p0(i64 8, ptr %13) #6
  call void @llvm.lifetime.start.p0(i64 8, ptr %14) #6
  call void @llvm.lifetime.start.p0(i64 8, ptr %15) #6
  call void @llvm.lifetime.start.p0(i64 4, ptr %16) #6
  %18 = load ptr, ptr %11, align 8, !tbaa !3
  store ptr %18, ptr %12, align 8, !tbaa !11
  %19 = load ptr, ptr %12, align 8, !tbaa !11
  %20 = getelementptr inbounds nuw %struct.CVodeMemRec, ptr %19, i32 0, i32 248
  %21 = load ptr, ptr %20, align 8, !tbaa !79
  store ptr %21, ptr %13, align 8, !tbaa !80
  %22 = load ptr, ptr %13, align 8, !tbaa !80
  %23 = getelementptr inbounds nuw %struct.CVadjMemRec, ptr %22, i32 0, i32 9
  %24 = load ptr, ptr %23, align 8, !tbaa !99
  store ptr %24, ptr %14, align 8, !tbaa !87
  %25 = load ptr, ptr %14, align 8, !tbaa !87
  %26 = getelementptr inbounds nuw %struct.CVodeBMemRec, ptr %25, i32 0, i32 12
  %27 = load ptr, ptr %26, align 8, !tbaa !97
  store ptr %27, ptr %15, align 8, !tbaa !92
  %28 = load ptr, ptr %13, align 8, !tbaa !80
  %29 = getelementptr inbounds nuw %struct.CVadjMemRec, ptr %28, i32 0, i32 22
  %30 = load ptr, ptr %29, align 8, !tbaa !100
  %31 = load ptr, ptr %12, align 8, !tbaa !11
  %32 = load double, ptr %8, align 8, !tbaa !9
  %33 = load ptr, ptr %13, align 8, !tbaa !80
  %34 = getelementptr inbounds nuw %struct.CVadjMemRec, ptr %33, i32 0, i32 30
  %35 = load ptr, ptr %34, align 8, !tbaa !101
  %36 = call i32 %30(ptr noundef %31, double noundef %32, ptr noundef %35, ptr noundef null)
  store i32 %36, ptr %16, align 4, !tbaa !54
  %37 = load i32, ptr %16, align 4, !tbaa !54
  %38 = icmp ne i32 %37, 0
  br i1 %38, label %39, label %41

39:                                               ; preds = %5
  %40 = load ptr, ptr %12, align 8, !tbaa !11
  call void (ptr, i32, i32, ptr, ptr, ptr, ...) @cvProcessError(ptr noundef %40, i32 noundef -1, i32 noundef 918, ptr noundef @__func__.cvGlocWrapper, ptr noundef @.str, ptr noundef @.str.11)
  store i32 -1, ptr %6, align 4
  store i32 1, ptr %17, align 4
  br label %56

41:                                               ; preds = %5
  %42 = load ptr, ptr %15, align 8, !tbaa !92
  %43 = getelementptr inbounds nuw %struct.CVBBDPrecDataRecB, ptr %42, i32 0, i32 0
  %44 = load ptr, ptr %43, align 8, !tbaa !94
  %45 = load i64, ptr %7, align 8, !tbaa !7
  %46 = load double, ptr %8, align 8, !tbaa !9
  %47 = load ptr, ptr %13, align 8, !tbaa !80
  %48 = getelementptr inbounds nuw %struct.CVadjMemRec, ptr %47, i32 0, i32 30
  %49 = load ptr, ptr %48, align 8, !tbaa !101
  %50 = load ptr, ptr %9, align 8, !tbaa !75
  %51 = load ptr, ptr %10, align 8, !tbaa !75
  %52 = load ptr, ptr %14, align 8, !tbaa !87
  %53 = getelementptr inbounds nuw %struct.CVodeBMemRec, ptr %52, i32 0, i32 9
  %54 = load ptr, ptr %53, align 8, !tbaa !102
  %55 = call i32 %44(i64 noundef %45, double noundef %46, ptr noundef %49, ptr noundef %50, ptr noundef %51, ptr noundef %54)
  store i32 %55, ptr %6, align 4
  store i32 1, ptr %17, align 4
  br label %56

56:                                               ; preds = %41, %39
  call void @llvm.lifetime.end.p0(i64 4, ptr %16) #6
  call void @llvm.lifetime.end.p0(i64 8, ptr %15) #6
  call void @llvm.lifetime.end.p0(i64 8, ptr %14) #6
  call void @llvm.lifetime.end.p0(i64 8, ptr %13) #6
  call void @llvm.lifetime.end.p0(i64 8, ptr %12) #6
  %57 = load i32, ptr %6, align 4
  ret i32 %57
}