; Function Attrs: nounwind uwtable
define internal i32 @cvGlocWrapper(i64 noundef %0, double noundef %1, ptr noundef %2, ptr noundef %3, ptr noundef %4) #0 {
  %6 = getelementptr inbounds nuw i8, ptr %4, i64 2672
  %7 = load ptr, ptr %6, align 8, !tbaa !74
  %8 = getelementptr inbounds nuw i8, ptr %7, i64 64
  %9 = load ptr, ptr %8, align 8, !tbaa !91
  %10 = getelementptr inbounds nuw i8, ptr %9, i64 88
  %11 = load ptr, ptr %10, align 8, !tbaa !89
  %12 = getelementptr inbounds nuw i8, ptr %7, i64 168
  %13 = load ptr, ptr %12, align 8, !tbaa !92
  %14 = getelementptr inbounds nuw i8, ptr %7, i64 504
  %15 = load ptr, ptr %14, align 8, !tbaa !93
  %16 = tail call i32 %13(ptr noundef %4, double noundef %1, ptr noundef %15, ptr noundef null) #10
  %.not = icmp eq i32 %16, 0
  br i1 %.not, label %18, label %17

17:                                               ; preds = %5
  tail call void (ptr, i32, i32, ptr, ptr, ptr, ...) @cvProcessError(ptr noundef nonnull %4, i32 noundef -1, i32 noundef 918, ptr noundef nonnull @__func__.cvGlocWrapper, ptr noundef nonnull @.str, ptr noundef nonnull @.str.11) #10
  br label %24

18:                                               ; preds = %5
  %19 = load ptr, ptr %11, align 8, !tbaa !86
  %20 = load ptr, ptr %14, align 8, !tbaa !93
  %21 = getelementptr inbounds nuw i8, ptr %9, i64 64
  %22 = load ptr, ptr %21, align 8, !tbaa !94
  %23 = tail call i32 %19(i64 noundef %0, double noundef %1, ptr noundef %20, ptr noundef %2, ptr noundef %3, ptr noundef %22) #10
  br label %24

24:                                               ; preds = %18, %17
  %.0 = phi i32 [ -1, %17 ], [ %23, %18 ]
  ret i32 %.0
}